target datalayout = "e-m:e-p270:32:32-p271:32:32-p272:64:64-i64:64-i128:128-f80:128-n8:16:32:64-S128"
target triple = "x86_64-pc-linux-gnu"

%"class.std::__cxx11::basic_string" = type { %"struct.std::__cxx11::basic_string<char>::_Alloc_hider", i64, %union.anon }
%"struct.std::__cxx11::basic_string<char>::_Alloc_hider" = type { ptr }
%union.anon = type { i64, [8 x i8] }
%"class.std::filesystem::__cxx11::path" = type { %"class.std::__cxx11::basic_string", %"struct.std::filesystem::__cxx11::path::_List" }
%"struct.std::filesystem::__cxx11::path::_List" = type { %"class.std::unique_ptr.177" }
%"class.std::unique_ptr.177" = type { %"struct.std::__uniq_ptr_data.178" }
%"struct.std::__uniq_ptr_data.178" = type { %"class.std::__uniq_ptr_impl.179" }
%"class.std::__uniq_ptr_impl.179" = type { %"class.std::tuple.180" }
%"class.std::tuple.180" = type { %"struct.std::_Tuple_impl.181" }
%"struct.std::_Tuple_impl.181" = type { %"struct.std::_Head_base.184" }
%"struct.std::_Head_base.184" = type { ptr }
%"class.gmx::analysismodules::(anonymous namespace)::IndexFileWriterModule" = type <{ %"class.gmx::AnalysisDataModuleSerial", %"class.std::__cxx11::basic_string", %"class.std::vector.142", ptr, i32, i32, i8, [7 x i8] }>
%"class.gmx::AnalysisDataModuleSerial" = type { %"class.gmx::IAnalysisDataModule" }
%"class.gmx::IAnalysisDataModule" = type { ptr }
%"class.std::vector.142" = type { %"struct.std::_Vector_base.143" }
%"struct.std::_Vector_base.143" = type { %"struct.std::_Vector_base<gmx::analysismodules::(anonymous namespace)::IndexFileWriterModule::GroupInfo, std::allocator<gmx::analysismodules::(anonymous namespace)::IndexFileWriterModule::GroupInfo>>::_Vector_impl" }
%"struct.std::_Vector_base<gmx::analysismodules::(anonymous namespace)::IndexFileWriterModule::GroupInfo, std::allocator<gmx::analysismodules::(anonymous namespace)::IndexFileWriterModule::GroupInfo>>::_Vector_impl" = type { %"struct.std::_Vector_base<gmx::analysismodules::(anonymous namespace)::IndexFileWriterModule::GroupInfo, std::allocator<gmx::analysismodules::(anonymous namespace)::IndexFileWriterModule::GroupInfo>>::_Vector_impl_data" }
%"struct.std::_Vector_base<gmx::analysismodules::(anonymous namespace)::IndexFileWriterModule::GroupInfo, std::allocator<gmx::analysismodules::(anonymous namespace)::IndexFileWriterModule::GroupInfo>>::_Vector_impl_data" = type { ptr, ptr, ptr }

@.str.113 = private unnamed_addr constant [2 x i8] c"w\00", align 1

; Function Attrs: mustprogress uwtable
define internal void @_ZN3gmx15analysismodules12_GLOBAL__N_121IndexFileWriterModule11dataStartedEPNS_20AbstractAnalysisDataE(ptr noundef nonnull align 8 dereferenceable(81) %0, ptr noundef %1) unnamed_addr #0 align 2 personality ptr @__gxx_personality_v0 {
  %3 = alloca ptr, align 8
  %4 = alloca ptr, align 8
  %5 = alloca %"class.std::filesystem::__cxx11::path", align 8
  %6 = alloca ptr, align 8
  %7 = alloca ptr, align 8
  %8 = alloca i32, align 4
  store ptr %0, ptr %3, align 8
  store ptr %1, ptr %4, align 8
  %9 = load ptr, ptr %3, align 8
  %10 = getelementptr inbounds %"class.gmx::analysismodules::(anonymous namespace)::IndexFileWriterModule", ptr %9, i32 0, i32 1
  %11 = call noundef zeroext i1 @_ZNKSt7__cxx1112basic_stringIcSt11char_traitsIcESaIcEE5emptyEv(ptr noundef nonnull align 8 dereferenceable(32) %10) #13
  br i1 %11, label %22, label %12

12:                                               ; preds = %2
  %13 = getelementptr inbounds %"class.gmx::analysismodules::(anonymous namespace)::IndexFileWriterModule", ptr %9, i32 0, i32 1
  %14 = call noundef ptr @_ZNKSt7__cxx1112basic_stringIcSt11char_traitsIcESaIcEE5c_strEv(ptr noundef nonnull align 8 dereferenceable(32) %13) #13
  store ptr %14, ptr %6, align 8
  call void @_ZNSt10filesystem7__cxx114pathC2IPKcS1_EERKT_NS1_6formatE(ptr noundef nonnull align 8 dereferenceable(40) %5, ptr noundef nonnull align 8 dereferenceable(8) %6, i8 noundef zeroext 2)
  %15 = invoke noundef ptr @_Z13gmx_fio_fopenRKNSt10filesystem7__cxx114pathEPKc(ptr noundef nonnull align 8 dereferenceable(40) %5, ptr noundef @.str.113)
          to label %16 unwind label %18

16:                                               ; preds = %12
  %17 = getelementptr inbounds %"class.gmx::analysismodules::(anonymous namespace)::IndexFileWriterModule", ptr %9, i32 0, i32 3
  store ptr %15, ptr %17, align 8
  call void @_ZNSt10filesystem7__cxx114pathD2Ev(ptr noundef nonnull align 8 dereferenceable(40) %5) #13
  br label %22

18:                                               ; preds = %12
  %19 = landingpad { ptr, i32 }
          cleanup
  %20 = extractvalue { ptr, i32 } %19, 0
  store ptr %20, ptr %7, align 8
  %21 = extractvalue { ptr, i32 } %19, 1
  store i32 %21, ptr %8, align 4
  call void @_ZNSt10filesystem7__cxx114pathD2Ev(ptr noundef nonnull align 8 dereferenceable(40) %5) #13
  br label %23

22:                                               ; preds = %16, %2
  ret void

23:                                               ; preds = %18
  %24 = load ptr, ptr %7, align 8
  %25 = load i32, ptr %8, align 4
  %26 = insertvalue { ptr, i32 } poison, ptr %24, 0
  %27 = insertvalue { ptr, i32 } %26, i32 %25, 1
  resume { ptr, i32 } %27
}